target datalayout = "e-m:e-p270:32:32-p271:32:32-p272:64:64-i64:64-i128:128-f80:128-n8:16:32:64-S128"
target triple = "x86_64-pc-linux-gnu"

; Function Attrs: nounwind uwtable
define i32 @ossl_is_partially_overlapping(ptr noundef %0, ptr noundef %1, i32 noundef %2) #0 {
  %4 = alloca ptr, align 8
  %5 = alloca ptr, align 8
  %6 = alloca i32, align 4
  %7 = alloca i64, align 8
  %8 = alloca i32, align 4
  store ptr %0, ptr %4, align 8, !tbaa !81
  store ptr %1, ptr %5, align 8, !tbaa !81
  store i32 %2, ptr %6, align 4, !tbaa !29
  call void @llvm.lifetime.start.p0(i64 8, ptr %7) #9
  %9 = load ptr, ptr %4, align 8, !tbaa !81
  %10 = ptrtoint ptr %9 to i64
  %11 = load ptr, ptr %5, align 8, !tbaa !81
  %12 = ptrtoint ptr %11 to i64
  %13 = sub i64 %10, %12
  store i64 %13, ptr %7, align 8, !tbaa !33
  call void @llvm.lifetime.start.p0(i64 4, ptr %8) #9
  %14 = load i32, ptr %6, align 4, !tbaa !29
  %15 = icmp sgt i32 %14, 0
  %16 = zext i1 %15 to i32
  %17 = load i64, ptr %7, align 8, !tbaa !33
  %18 = icmp ne i64 %17, 0
  %19 = zext i1 %18 to i32
  %20 = and i32 %16, %19
  %21 = load i64, ptr %7, align 8, !tbaa !33
  %22 = load i32, ptr %6, align 4, !tbaa !29
  %23 = sext i32 %22 to i64
  %24 = icmp ult i64 %21, %23
  %25 = zext i1 %24 to i32
  %26 = load i64, ptr %7, align 8, !tbaa !33
  %27 = load i32, ptr %6, align 4, !tbaa !29
  %28 = sext i32 %27 to i64
  %29 = sub i64 0, %28
  %30 = icmp ugt i64 %26, %29
  %31 = zext i1 %30 to i32
  %32 = or i32 %25, %31
  %33 = and i32 %20, %32
  store i32 %33, ptr %8, align 4, !tbaa !29
  %34 = load i32, ptr %8, align 4, !tbaa !29
  call void @llvm.lifetime.end.p0(i64 4, ptr %8) #9
  call void @llvm.lifetime.end.p0(i64 8, ptr %7) #9
  ret i32 %34
}