; Function Attrs: mustprogress nofree norecurse nosync nounwind willreturn memory(none) uwtable
define range(i32 0, 2) i32 @ossl_is_partially_overlapping(ptr noundef %0, ptr noundef %1, i32 noundef %2) local_unnamed_addr #4 {
  %4 = ptrtoint ptr %0 to i64
  %5 = ptrtoint ptr %1 to i64
  %6 = sub i64 %4, %5
  %7 = icmp sgt i32 %2, 0
  %8 = icmp ne ptr %0, %1
  %9 = and i1 %8, %7
  %10 = sext i32 %2 to i64
  %11 = icmp ult i64 %6, %10
  %12 = sub nsw i64 0, %10
  %13 = icmp ugt i64 %6, %12
  %14 = or i1 %11, %13
  %15 = and i1 %9, %14
  %16 = zext i1 %15 to i32
  ret i32 %16
}